; Function Attrs: mustprogress uwtable
define void @_ZN8QuantLib31CappedFlooredYoYInflationCoupon9setPricerERKN5boost10shared_ptrINS_24YoYInflationCouponPricerEEE(ptr noundef nonnull align 8 dereferenceable(232) %this, ptr nocapture noundef nonnull readonly align 8 dereferenceable(16) %pricer) local_unnamed_addr #8 align 2 personality ptr @__gxx_personality_v0 {
entry:
  %ref.tmp = alloca %"class.boost::shared_ptr.29", align 8
  %ref.tmp4 = alloca %"class.boost::shared_ptr.29", align 8
  call void @llvm.lifetime.start.p0(i64 16, ptr nonnull %ref.tmp) #26
  %0 = load ptr, ptr %pricer, align 8, !tbaa !77
  store ptr %0, ptr %ref.tmp, align 8, !tbaa !79
  %pn.i = getelementptr inbounds nuw i8, ptr %ref.tmp, i64 8
  %pn3.i = getelementptr inbounds nuw i8, ptr %pricer, i64 8
  %1 = load ptr, ptr %pn3.i, align 8, !tbaa !48
  store ptr %1, ptr %pn.i, align 8, !tbaa !48
  %cmp.not.i.i = icmp eq ptr %1, null
  br i1 %cmp.not.i.i, label %_ZN5boost10shared_ptrIN8QuantLib21InflationCouponPricerEEC2INS1_24YoYInflationCouponPricerEEERKNS0_IT_EENS_6detail24sp_enable_if_convertibleIS6_S2_E4typeE.exit, label %if.then.i.i

if.then.i.i:                                      ; preds = %entry
  %use_count_.i.i.i = getelementptr inbounds nuw i8, ptr %1, i64 8
  %2 = atomicrmw add ptr %use_count_.i.i.i, i32 1 monotonic, align 4
  br label %_ZN5boost10shared_ptrIN8QuantLib21InflationCouponPricerEEC2INS1_24YoYInflationCouponPricerEEERKNS0_IT_EENS_6detail24sp_enable_if_convertibleIS6_S2_E4typeE.exit

_ZN5boost10shared_ptrIN8QuantLib21InflationCouponPricerEEC2INS1_24YoYInflationCouponPricerEEERKNS0_IT_EENS_6detail24sp_enable_if_convertibleIS6_S2_E4typeE.exit: ; preds = %entry, %if.then.i.i
  invoke void @_ZN8QuantLib15InflationCoupon9setPricerERKN5boost10shared_ptrINS_21InflationCouponPricerEEE(ptr noundef nonnull align 8 dereferenceable(160) %this, ptr noundef nonnull align 8 dereferenceable(16) %ref.tmp)
          to label %invoke.cont unwind label %lpad

invoke.cont:                                      ; preds = %_ZN5boost10shared_ptrIN8QuantLib21InflationCouponPricerEEC2INS1_24YoYInflationCouponPricerEEERKNS0_IT_EENS_6detail24sp_enable_if_convertibleIS6_S2_E4typeE.exit
  %3 = load ptr, ptr %pn.i, align 8, !tbaa !48
  %cmp.not.i.i4 = icmp eq ptr %3, null
  br i1 %cmp.not.i.i4, label %_ZN5boost10shared_ptrIN8QuantLib21InflationCouponPricerEED2Ev.exit, label %if.then.i.i5

if.then.i.i5:                                     ; preds = %invoke.cont
  %use_count_.i.i.i6 = getelementptr inbounds nuw i8, ptr %3, i64 8
  %4 = atomicrmw sub ptr %use_count_.i.i.i6, i32 1 acq_rel, align 4
  %cmp.i.i.i = icmp eq i32 %4, 1
  br i1 %cmp.i.i.i, label %if.then.i.i.i, label %_ZN5boost10shared_ptrIN8QuantLib21InflationCouponPricerEED2Ev.exit

if.then.i.i.i:                                    ; preds = %if.then.i.i5
  %vtable.i.i.i = load ptr, ptr %3, align 8, !tbaa !33
  %vfn.i.i.i = getelementptr inbounds i8, ptr %vtable.i.i.i, i64 16
  %5 = load ptr, ptr %vfn.i.i.i, align 8
  invoke void %5(ptr noundef nonnull align 8 dereferenceable(16) %3)
          to label %.noexc.i.i unwind label %terminate.lpad.i.i

.noexc.i.i:                                       ; preds = %if.then.i.i.i
  %weak_count_.i.i.i.i = getelementptr inbounds nuw i8, ptr %3, i64 12
  %6 = atomicrmw sub ptr %weak_count_.i.i.i.i, i32 1 acq_rel, align 4
  %cmp.i.i.i.i = icmp eq i32 %6, 1
  br i1 %cmp.i.i.i.i, label %if.then.i.i.i.i, label %_ZN5boost10shared_ptrIN8QuantLib21InflationCouponPricerEED2Ev.exit

if.then.i.i.i.i:                                  ; preds = %.noexc.i.i
  %vtable.i.i.i.i = load ptr, ptr %3, align 8, !tbaa !33
  %vfn.i.i.i.i = getelementptr inbounds i8, ptr %vtable.i.i.i.i, i64 24
  %7 = load ptr, ptr %vfn.i.i.i.i, align 8
  invoke void %7(ptr noundef nonnull align 8 dereferenceable(16) %3)
          to label %_ZN5boost10shared_ptrIN8QuantLib21InflationCouponPricerEED2Ev.exit unwind label %terminate.lpad.i.i

terminate.lpad.i.i:                               ; preds = %if.then.i.i.i.i, %if.then.i.i.i
  %8 = landingpad { ptr, i32 }
          catch ptr null
  %9 = extractvalue { ptr, i32 } %8, 0
  call void @__clang_call_terminate(ptr %9) #27
  unreachable

_ZN5boost10shared_ptrIN8QuantLib21InflationCouponPricerEED2Ev.exit: ; preds = %invoke.cont, %if.then.i.i5, %.noexc.i.i, %if.then.i.i.i.i
  call void @llvm.lifetime.end.p0(i64 16, ptr nonnull %ref.tmp) #26
  %underlying_ = getelementptr inbounds nuw i8, ptr %this, i64 192
  %10 = load ptr, ptr %underlying_, align 8, !tbaa !67
  %cmp.i.not = icmp eq ptr %10, null
  br i1 %cmp.i.not, label %if.end, label %_ZNK5boost10shared_ptrIN8QuantLib18YoYInflationCouponEEptEv.exit

_ZNK5boost10shared_ptrIN8QuantLib18YoYInflationCouponEEptEv.exit: ; preds = %_ZN5boost10shared_ptrIN8QuantLib21InflationCouponPricerEED2Ev.exit
  call void @llvm.lifetime.start.p0(i64 16, ptr nonnull %ref.tmp4) #26
  %11 = load ptr, ptr %pricer, align 8, !tbaa !77
  store ptr %11, ptr %ref.tmp4, align 8, !tbaa !79
  %pn.i7 = getelementptr inbounds nuw i8, ptr %ref.tmp4, i64 8
  %12 = load ptr, ptr %pn3.i, align 8, !tbaa !48
  store ptr %12, ptr %pn.i7, align 8, !tbaa !48
  %cmp.not.i.i9 = icmp eq ptr %12, null
  br i1 %cmp.not.i.i9, label %_ZN5boost10shared_ptrIN8QuantLib21InflationCouponPricerEEC2INS1_24YoYInflationCouponPricerEEERKNS0_IT_EENS_6detail24sp_enable_if_convertibleIS6_S2_E4typeE.exit12, label %if.then.i.i10

if.then.i.i10:                                    ; preds = %_ZNK5boost10shared_ptrIN8QuantLib18YoYInflationCouponEEptEv.exit
  %use_count_.i.i.i11 = getelementptr inbounds nuw i8, ptr %12, i64 8
  %13 = atomicrmw add ptr %use_count_.i.i.i11, i32 1 monotonic, align 4
  br label %_ZN5boost10shared_ptrIN8QuantLib21InflationCouponPricerEEC2INS1_24YoYInflationCouponPricerEEERKNS0_IT_EENS_6detail24sp_enable_if_convertibleIS6_S2_E4typeE.exit12

_ZN5boost10shared_ptrIN8QuantLib21InflationCouponPricerEEC2INS1_24YoYInflationCouponPricerEEERKNS0_IT_EENS_6detail24sp_enable_if_convertibleIS6_S2_E4typeE.exit12: ; preds = %_ZNK5boost10shared_ptrIN8QuantLib18YoYInflationCouponEEptEv.exit, %if.then.i.i10
  invoke void @_ZN8QuantLib15InflationCoupon9setPricerERKN5boost10shared_ptrINS_21InflationCouponPricerEEE(ptr noundef nonnull align 8 dereferenceable(160) %10, ptr noundef nonnull align 8 dereferenceable(16) %ref.tmp4)
          to label %invoke.cont7 unwind label %lpad6

invoke.cont7:                                     ; preds = %_ZN5boost10shared_ptrIN8QuantLib21InflationCouponPricerEEC2INS1_24YoYInflationCouponPricerEEERKNS0_IT_EENS_6detail24sp_enable_if_convertibleIS6_S2_E4typeE.exit12
  %14 = load ptr, ptr %pn.i7, align 8, !tbaa !48
  %cmp.not.i.i14 = icmp eq ptr %14, null
  br i1 %cmp.not.i.i14, label %_ZN5boost10shared_ptrIN8QuantLib21InflationCouponPricerEED2Ev.exit28, label %if.then.i.i15

if.then.i.i15:                                    ; preds = %invoke.cont7
  %use_count_.i.i.i16 = getelementptr inbounds nuw i8, ptr %14, i64 8
  %15 = atomicrmw sub ptr %use_count_.i.i.i16, i32 1 acq_rel, align 4
  %cmp.i.i.i17 = icmp eq i32 %15, 1
  br i1 %cmp.i.i.i17, label %if.then.i.i.i18, label %_ZN5boost10shared_ptrIN8QuantLib21InflationCouponPricerEED2Ev.exit28

if.then.i.i.i18:                                  ; preds = %if.then.i.i15
  %vtable.i.i.i19 = load ptr, ptr %14, align 8, !tbaa !33
  %vfn.i.i.i20 = getelementptr inbounds i8, ptr %vtable.i.i.i19, i64 16
  %16 = load ptr, ptr %vfn.i.i.i20, align 8
  invoke void %16(ptr noundef nonnull align 8 dereferenceable(16) %14)
          to label %.noexc.i.i22 unwind label %terminate.lpad.i.i21

.noexc.i.i22:                                     ; preds = %if.then.i.i.i18
  %weak_count_.i.i.i.i23 = getelementptr inbounds nuw i8, ptr %14, i64 12
  %17 = atomicrmw sub ptr %weak_count_.i.i.i.i23, i32 1 acq_rel, align 4
  %cmp.i.i.i.i24 = icmp eq i32 %17, 1
  br i1 %cmp.i.i.i.i24, label %if.then.i.i.i.i25, label %_ZN5boost10shared_ptrIN8QuantLib21InflationCouponPricerEED2Ev.exit28

if.then.i.i.i.i25:                                ; preds = %.noexc.i.i22
  %vtable.i.i.i.i26 = load ptr, ptr %14, align 8, !tbaa !33
  %vfn.i.i.i.i27 = getelementptr inbounds i8, ptr %vtable.i.i.i.i26, i64 24
  %18 = load ptr, ptr %vfn.i.i.i.i27, align 8
  invoke void %18(ptr noundef nonnull align 8 dereferenceable(16) %14)
          to label %_ZN5boost10shared_ptrIN8QuantLib21InflationCouponPricerEED2Ev.exit28 unwind label %terminate.lpad.i.i21

terminate.lpad.i.i21:                             ; preds = %if.then.i.i.i.i25, %if.then.i.i.i18
  %19 = landingpad { ptr, i32 }
          catch ptr null
  %20 = extractvalue { ptr, i32 } %19, 0
  call void @__clang_call_terminate(ptr %20) #27
  unreachable

_ZN5boost10shared_ptrIN8QuantLib21InflationCouponPricerEED2Ev.exit28: ; preds = %invoke.cont7, %if.then.i.i15, %.noexc.i.i22, %if.then.i.i.i.i25
  call void @llvm.lifetime.end.p0(i64 16, ptr nonnull %ref.tmp4) #26
  br label %if.end

lpad:                                             ; preds = %_ZN5boost10shared_ptrIN8QuantLib21InflationCouponPricerEEC2INS1_24YoYInflationCouponPricerEEERKNS0_IT_EENS_6detail24sp_enable_if_convertibleIS6_S2_E4typeE.exit
  %21 = landingpad { ptr, i32 }
          cleanup
  call void @_ZN5boost10shared_ptrIN8QuantLib21InflationCouponPricerEED2Ev(ptr noundef nonnull align 8 dereferenceable(16) %ref.tmp) #26
  call void @llvm.lifetime.end.p0(i64 16, ptr nonnull %ref.tmp) #26
  br label %eh.resume

lpad6:                                            ; preds = %_ZN5boost10shared_ptrIN8QuantLib21InflationCouponPricerEEC2INS1_24YoYInflationCouponPricerEEERKNS0_IT_EENS_6detail24sp_enable_if_convertibleIS6_S2_E4typeE.exit12
  %22 = landingpad { ptr, i32 }
          cleanup
  call void @_ZN5boost10shared_ptrIN8QuantLib21InflationCouponPricerEED2Ev(ptr noundef nonnull align 8 dereferenceable(16) %ref.tmp4) #26
  call void @llvm.lifetime.end.p0(i64 16, ptr nonnull %ref.tmp4) #26
  br label %eh.resume

if.end:                                           ; preds = %_ZN5boost10shared_ptrIN8QuantLib21InflationCouponPricerEED2Ev.exit28, %_ZN5boost10shared_ptrIN8QuantLib21InflationCouponPricerEED2Ev.exit
  ret void

eh.resume:                                        ; preds = %lpad6, %lpad
  %.pn = phi { ptr, i32 } [ %22, %lpad6 ], [ %21, %lpad ]
  resume { ptr, i32 } %.pn
}